target datalayout = "e-m:e-p270:32:32-p271:32:32-p272:64:64-i64:64-i128:128-f80:128-n8:16:32:64-S128"
target triple = "x86_64-pc-linux-gnu"

%class.State = type { [315 x i32], [315 x i16], i32, ptr, [2 x ptr] }
%class.Node = type <{ ptr, ptr, ptr, i32, i32, i32, i32, i32, i32, i32, [4 x i8] }>
%class.Type = type <{ ptr, ptr, i32, [4 x i8] }>

; Function Attrs: mustprogress nounwind uwtable
define linkonce_odr hidden noundef ptr @_ZNK4Type12isa_vectmaskEv(ptr noundef nonnull align 8 dereferenceable(20) %0) #1 comdat align 2 {
  %2 = alloca ptr, align 8
  store ptr %0, ptr %2, align 8
  %3 = load ptr, ptr %2, align 8
  %4 = getelementptr inbounds %class.Type, ptr %3, i32 0, i32 2
  %5 = load i32, ptr %4, align 8
  %6 = icmp eq i32 %5, 11
  br i1 %6, label %7, label %8

7:                                                ; preds = %1
  br label %9

8:                                                ; preds = %1
  br label %9

9:                                                ; preds = %8, %7
  %10 = phi ptr [ %3, %7 ], [ null, %8 ]
  ret ptr %10
}

; Function Attrs: mustprogress nounwind uwtable
define linkonce_odr hidden noundef ptr @_ZNK4Node2inEj(ptr noundef nonnull align 8 dereferenceable(52) %0, i32 noundef %1) #1 comdat align 2 {
  %3 = alloca ptr, align 8
  %4 = alloca i32, align 4
  store ptr %0, ptr %3, align 8
  store i32 %1, ptr %4, align 4
  %5 = load ptr, ptr %3, align 8
  %6 = getelementptr inbounds %class.Node, ptr %5, i32 0, i32 1
  %7 = load ptr, ptr %6, align 8
  %8 = load i32, ptr %4, align 4
  %9 = zext i32 %8 to i64
  %10 = getelementptr inbounds ptr, ptr %7, i64 %9
  %11 = load ptr, ptr %10, align 8
  ret ptr %11
}

; Function Attrs: mustprogress nounwind uwtable
define hidden void @_ZN5State25_sub_Op_StoreVectorMaskedEPK4Node(ptr noundef nonnull align 8 dereferenceable(1920) %0, ptr noundef %1) #1 align 2 {
  %3 = alloca ptr, align 8
  %4 = alloca ptr, align 8
  %5 = alloca i32, align 4
  %6 = alloca i32, align 4
  store ptr %0, ptr %3, align 8
  store ptr %1, ptr %4, align 8
  %7 = load ptr, ptr %3, align 8
  %8 = getelementptr inbounds %class.State, ptr %7, i32 0, i32 4
  %9 = getelementptr inbounds [2 x ptr], ptr %8, i64 0, i64 0
  %10 = load ptr, ptr %9, align 8
  %11 = icmp ne ptr %10, null
  br i1 %11, label %12, label %67

12:                                               ; preds = %2
  %13 = getelementptr inbounds %class.State, ptr %7, i32 0, i32 4
  %14 = getelementptr inbounds [2 x ptr], ptr %13, i64 0, i64 0
  %15 = load ptr, ptr %14, align 8
  %16 = getelementptr inbounds %class.State, ptr %15, i32 0, i32 1
  %17 = getelementptr inbounds [315 x i16], ptr %16, i64 0, i64 127
  %18 = load i16, ptr %17, align 2
  %19 = zext i16 %18 to i32
  %20 = and i32 %19, 1
  %21 = icmp ne i32 %20, 0
  br i1 %21, label %22, label %67

22:                                               ; preds = %12
  %23 = getelementptr inbounds %class.State, ptr %7, i32 0, i32 4
  %24 = getelementptr inbounds [2 x ptr], ptr %23, i64 0, i64 1
  %25 = load ptr, ptr %24, align 8
  %26 = icmp ne ptr %25, null
  br i1 %26, label %27, label %67

27:                                               ; preds = %22
  %28 = getelementptr inbounds %class.State, ptr %7, i32 0, i32 4
  %29 = getelementptr inbounds [2 x ptr], ptr %28, i64 0, i64 1
  %30 = load ptr, ptr %29, align 8
  %31 = getelementptr inbounds %class.State, ptr %30, i32 0, i32 1
  %32 = getelementptr inbounds [315 x i16], ptr %31, i64 0, i64 278
  %33 = load i16, ptr %32, align 4
  %34 = zext i16 %33 to i32
  %35 = and i32 %34, 1
  %36 = icmp ne i32 %35, 0
  br i1 %36, label %37, label %67

37:                                               ; preds = %27
  %38 = load ptr, ptr %4, align 8
  %39 = call noundef ptr @_ZNK4Node2inEj(ptr noundef nonnull align 8 dereferenceable(52) %38, i32 noundef 3)
  %40 = call noundef ptr @_ZNK4Node2inEj(ptr noundef nonnull align 8 dereferenceable(52) %39, i32 noundef 2)
  %41 = load ptr, ptr %40, align 8
  %42 = getelementptr inbounds ptr, ptr %41, i64 5
  %43 = load ptr, ptr %42, align 8
  %44 = call noundef ptr %43(ptr noundef nonnull align 8 dereferenceable(52) %40)
  %45 = call noundef ptr @_ZNK4Type12isa_vectmaskEv(ptr noundef nonnull align 8 dereferenceable(20) %44)
  %46 = icmp ne ptr %45, null
  br i1 %46, label %47, label %67

47:                                               ; preds = %37
  %48 = getelementptr inbounds %class.State, ptr %7, i32 0, i32 4
  %49 = getelementptr inbounds [2 x ptr], ptr %48, i64 0, i64 0
  %50 = load ptr, ptr %49, align 8
  %51 = getelementptr inbounds %class.State, ptr %50, i32 0, i32 0
  %52 = getelementptr inbounds [315 x i32], ptr %51, i64 0, i64 127
  %53 = load i32, ptr %52, align 4
  %54 = getelementptr inbounds %class.State, ptr %7, i32 0, i32 4
  %55 = getelementptr inbounds [2 x ptr], ptr %54, i64 0, i64 1
  %56 = load ptr, ptr %55, align 8
  %57 = getelementptr inbounds %class.State, ptr %56, i32 0, i32 0
  %58 = getelementptr inbounds [315 x i32], ptr %57, i64 0, i64 278
  %59 = load i32, ptr %58, align 8
  %60 = add i32 %53, %59
  %61 = add i32 %60, 100
  store i32 %61, ptr %5, align 4
  %62 = load i32, ptr %5, align 4
  %63 = getelementptr inbounds %class.State, ptr %7, i32 0, i32 0
  %64 = getelementptr inbounds [315 x i32], ptr %63, i64 0, i64 0
  store i32 %62, ptr %64, align 8
  %65 = getelementptr inbounds %class.State, ptr %7, i32 0, i32 1
  %66 = getelementptr inbounds [315 x i16], ptr %65, i64 0, i64 0
  store i16 3049, ptr %66, align 4
  br label %67

67:                                               ; preds = %47, %37, %27, %22, %12, %2
  %68 = getelementptr inbounds %class.State, ptr %7, i32 0, i32 4
  %69 = getelementptr inbounds [2 x ptr], ptr %68, i64 0, i64 0
  %70 = load ptr, ptr %69, align 8
  %71 = icmp ne ptr %70, null
  br i1 %71, label %72, label %141

72:                                               ; preds = %67
  %73 = getelementptr inbounds %class.State, ptr %7, i32 0, i32 4
  %74 = getelementptr inbounds [2 x ptr], ptr %73, i64 0, i64 0
  %75 = load ptr, ptr %74, align 8
  %76 = getelementptr inbounds %class.State, ptr %75, i32 0, i32 1
  %77 = getelementptr inbounds [315 x i16], ptr %76, i64 0, i64 127
  %78 = load i16, ptr %77, align 2
  %79 = zext i16 %78 to i32
  %80 = and i32 %79, 1
  %81 = icmp ne i32 %80, 0
  br i1 %81, label %82, label %141

82:                                               ; preds = %72
  %83 = getelementptr inbounds %class.State, ptr %7, i32 0, i32 4
  %84 = getelementptr inbounds [2 x ptr], ptr %83, i64 0, i64 1
  %85 = load ptr, ptr %84, align 8
  %86 = icmp ne ptr %85, null
  br i1 %86, label %87, label %141

87:                                               ; preds = %82
  %88 = getelementptr inbounds %class.State, ptr %7, i32 0, i32 4
  %89 = getelementptr inbounds [2 x ptr], ptr %88, i64 0, i64 1
  %90 = load ptr, ptr %89, align 8
  %91 = getelementptr inbounds %class.State, ptr %90, i32 0, i32 1
  %92 = getelementptr inbounds [315 x i16], ptr %91, i64 0, i64 289
  %93 = load i16, ptr %92, align 2
  %94 = zext i16 %93 to i32
  %95 = and i32 %94, 1
  %96 = icmp ne i32 %95, 0
  br i1 %96, label %97, label %141

97:                                               ; preds = %87
  %98 = load ptr, ptr %4, align 8
  %99 = call noundef ptr @_ZNK4Node2inEj(ptr noundef nonnull align 8 dereferenceable(52) %98, i32 noundef 3)
  %100 = call noundef ptr @_ZNK4Node2inEj(ptr noundef nonnull align 8 dereferenceable(52) %99, i32 noundef 2)
  %101 = load ptr, ptr %100, align 8
  %102 = getelementptr inbounds ptr, ptr %101, i64 5
  %103 = load ptr, ptr %102, align 8
  %104 = call noundef ptr %103(ptr noundef nonnull align 8 dereferenceable(52) %100)
  %105 = call noundef ptr @_ZNK4Type12isa_vectmaskEv(ptr noundef nonnull align 8 dereferenceable(20) %104)
  %106 = icmp ne ptr %105, null
  br i1 %106, label %141, label %107

107:                                              ; preds = %97
  %108 = getelementptr inbounds %class.State, ptr %7, i32 0, i32 4
  %109 = getelementptr inbounds [2 x ptr], ptr %108, i64 0, i64 0
  %110 = load ptr, ptr %109, align 8
  %111 = getelementptr inbounds %class.State, ptr %110, i32 0, i32 0
  %112 = getelementptr inbounds [315 x i32], ptr %111, i64 0, i64 127
  %113 = load i32, ptr %112, align 4
  %114 = getelementptr inbounds %class.State, ptr %7, i32 0, i32 4
  %115 = getelementptr inbounds [2 x ptr], ptr %114, i64 0, i64 1
  %116 = load ptr, ptr %115, align 8
  %117 = getelementptr inbounds %class.State, ptr %116, i32 0, i32 0
  %118 = getelementptr inbounds [315 x i32], ptr %117, i64 0, i64 289
  %119 = load i32, ptr %118, align 4
  %120 = add i32 %113, %119
  %121 = add i32 %120, 100
  store i32 %121, ptr %6, align 4
  %122 = getelementptr inbounds %class.State, ptr %7, i32 0, i32 1
  %123 = getelementptr inbounds [315 x i16], ptr %122, i64 0, i64 0
  %124 = load i16, ptr %123, align 4
  %125 = zext i16 %124 to i32
  %126 = and i32 %125, 1
  %127 = icmp eq i32 %126, 0
  br i1 %127, label %134, label %128

128:                                              ; preds = %107
  %129 = getelementptr inbounds %class.State, ptr %7, i32 0, i32 0
  %130 = getelementptr inbounds [315 x i32], ptr %129, i64 0, i64 0
  %131 = load i32, ptr %130, align 8
  %132 = load i32, ptr %6, align 4
  %133 = icmp ugt i32 %131, %132
  br i1 %133, label %134, label %140

134:                                              ; preds = %128, %107
  %135 = load i32, ptr %6, align 4
  %136 = getelementptr inbounds %class.State, ptr %7, i32 0, i32 0
  %137 = getelementptr inbounds [315 x i32], ptr %136, i64 0, i64 0
  store i32 %135, ptr %137, align 8
  %138 = getelementptr inbounds %class.State, ptr %7, i32 0, i32 1
  %139 = getelementptr inbounds [315 x i16], ptr %138, i64 0, i64 0
  store i16 3047, ptr %139, align 4
  br label %140

140:                                              ; preds = %134, %128
  br label %141

141:                                              ; preds = %140, %97, %87, %82, %72, %67
  ret void
}