; Function Attrs: mustprogress nounwind uwtable
define hidden void @_ZN5State25_sub_Op_StoreVectorMaskedEPK4Node(ptr nocapture noundef nonnull align 8 dereferenceable(1920) %0, ptr nocapture noundef readonly %1) local_unnamed_addr #2 align 2 {
  %3 = getelementptr inbounds i8, ptr %0, i64 1904
  %4 = load ptr, ptr %3, align 8
  %.not = icmp eq ptr %4, null
  br i1 %.not, label %.thread, label %5

5:                                                ; preds = %2
  %6 = getelementptr inbounds i8, ptr %4, i64 1514
  %7 = load i16, ptr %6, align 2
  %8 = and i16 %7, 1
  %.not8 = icmp eq i16 %8, 0
  br i1 %.not8, label %.thread23, label %9

9:                                                ; preds = %5
  %10 = getelementptr inbounds i8, ptr %0, i64 1912
  %11 = load ptr, ptr %10, align 8
  %.not9 = icmp eq ptr %11, null
  br i1 %.not9, label %.thread23, label %12

12:                                               ; preds = %9
  %13 = getelementptr inbounds i8, ptr %11, i64 1816
  %14 = load i16, ptr %13, align 4
  %15 = and i16 %14, 1
  %.not10 = icmp eq i16 %15, 0
  br i1 %.not10, label %.thread23, label %16

16:                                               ; preds = %12
  %17 = getelementptr inbounds i8, ptr %1, i64 8
  %18 = load ptr, ptr %17, align 8
  %19 = getelementptr inbounds i8, ptr %18, i64 24
  %20 = load ptr, ptr %19, align 8
  %21 = getelementptr inbounds i8, ptr %20, i64 8
  %22 = load ptr, ptr %21, align 8
  %23 = getelementptr inbounds i8, ptr %22, i64 16
  %24 = load ptr, ptr %23, align 8
  %25 = load ptr, ptr %24, align 8
  %26 = getelementptr inbounds i8, ptr %25, i64 40
  %27 = load ptr, ptr %26, align 8
  %28 = tail call noundef ptr %27(ptr noundef nonnull align 8 dereferenceable(52) %24) #9
  %29 = getelementptr inbounds i8, ptr %28, i64 16
  %30 = load i32, ptr %29, align 8
  %31 = icmp ne i32 %30, 11
  %.not1120 = icmp eq ptr %28, null
  %.not11 = or i1 %.not1120, %31
  %.pr.pre = load ptr, ptr %3, align 8
  br i1 %.not11, label %41, label %32

32:                                               ; preds = %16
  %33 = getelementptr inbounds i8, ptr %.pr.pre, i64 508
  %34 = load i32, ptr %33, align 4
  %35 = load ptr, ptr %10, align 8
  %36 = getelementptr inbounds i8, ptr %35, i64 1112
  %37 = load i32, ptr %36, align 8
  %38 = add i32 %34, 100
  %39 = add i32 %38, %37
  store i32 %39, ptr %0, align 8
  %40 = getelementptr inbounds i8, ptr %0, i64 1260
  store i16 3049, ptr %40, align 4
  br label %.thread23

41:                                               ; preds = %16
  %.not12 = icmp eq ptr %.pr.pre, null
  br i1 %.not12, label %.thread, label %.thread23

.thread23:                                        ; preds = %5, %9, %12, %32, %41
  %.pr26 = phi ptr [ %.pr.pre, %41 ], [ %4, %5 ], [ %4, %9 ], [ %4, %12 ], [ %.pr.pre, %32 ]
  %42 = getelementptr inbounds i8, ptr %.pr26, i64 1514
  %43 = load i16, ptr %42, align 2
  %44 = and i16 %43, 1
  %.not13 = icmp eq i16 %44, 0
  br i1 %.not13, label %.thread, label %45

45:                                               ; preds = %.thread23
  %46 = getelementptr inbounds i8, ptr %0, i64 1912
  %47 = load ptr, ptr %46, align 8
  %.not14 = icmp eq ptr %47, null
  br i1 %.not14, label %.thread, label %48

48:                                               ; preds = %45
  %49 = getelementptr inbounds i8, ptr %47, i64 1838
  %50 = load i16, ptr %49, align 2
  %51 = and i16 %50, 1
  %.not15 = icmp eq i16 %51, 0
  br i1 %.not15, label %.thread, label %52

52:                                               ; preds = %48
  %53 = getelementptr inbounds i8, ptr %1, i64 8
  %54 = load ptr, ptr %53, align 8
  %55 = getelementptr inbounds i8, ptr %54, i64 24
  %56 = load ptr, ptr %55, align 8
  %57 = getelementptr inbounds i8, ptr %56, i64 8
  %58 = load ptr, ptr %57, align 8
  %59 = getelementptr inbounds i8, ptr %58, i64 16
  %60 = load ptr, ptr %59, align 8
  %61 = load ptr, ptr %60, align 8
  %62 = getelementptr inbounds i8, ptr %61, i64 40
  %63 = load ptr, ptr %62, align 8
  %64 = tail call noundef ptr %63(ptr noundef nonnull align 8 dereferenceable(52) %60) #9
  %65 = getelementptr inbounds i8, ptr %64, i64 16
  %66 = load i32, ptr %65, align 8
  %67 = icmp ne i32 %66, 11
  %.not1621 = icmp eq ptr %64, null
  %.not16 = or i1 %.not1621, %67
  br i1 %.not16, label %68, label %.thread

68:                                               ; preds = %52
  %69 = load ptr, ptr %3, align 8
  %70 = getelementptr inbounds i8, ptr %69, i64 508
  %71 = load i32, ptr %70, align 4
  %72 = load ptr, ptr %46, align 8
  %73 = getelementptr inbounds i8, ptr %72, i64 1156
  %74 = load i32, ptr %73, align 4
  %75 = add i32 %71, 100
  %76 = add i32 %75, %74
  %77 = getelementptr inbounds i8, ptr %0, i64 1260
  %78 = load i16, ptr %77, align 4
  %79 = and i16 %78, 1
  %80 = icmp eq i16 %79, 0
  %81 = load i32, ptr %0, align 8
  %82 = icmp ugt i32 %81, %76
  %or.cond = select i1 %80, i1 true, i1 %82
  br i1 %or.cond, label %83, label %.thread

83:                                               ; preds = %68
  store i32 %76, ptr %0, align 8
  store i16 3047, ptr %77, align 4
  br label %.thread

.thread:                                          ; preds = %2, %68, %83, %52, %48, %45, %.thread23, %41
  ret void
}